#include <math.h>
#include <stdio.h>
#include <stdlib.h>
#include <string.h>

int main(){
	int w;
	scanf("%d",&w);
	int i,d=12;
	for(i=1;i<=12;i++){
		if(i==3){
			d+=28;
		}
		else if(i==5||i==7||i==10||i==12){
			d+=30;
		}
		else if(i==2||i==4||i==6||i==8||i==9||i==11){
			d+=31;
		}
		if((d%7+w)%7==5){
			printf("%d\n",i);
		}
	}
return 0;
}