; ModuleID = '50/1375.c'
source_filename = "50/1375.c"
target datalayout = "e-m:e-p270:32:32-p271:32:32-p272:64:64-i64:64-f80:128-n8:16:32:64-S128"
target triple = "x86_64-pc-linux-gnu"

@.str = private unnamed_addr constant [3 x i8] c"%d\00", align 1
@.str.1 = private unnamed_addr constant [4 x i8] c"%d\0A\00", align 1

; Function Attrs: noinline nounwind uwtable
define dso_local i32 @main() #0 {
  %1 = alloca i32, align 4
  %2 = alloca i32, align 4
  %3 = alloca i32, align 4
  %4 = alloca i32, align 4
  store i32 0, i32* %1, align 4
  %5 = call i32 (i8*, ...) @__isoc99_scanf(i8* getelementptr inbounds ([3 x i8], [3 x i8]* @.str, i64 0, i64 0), i32* %2)
  store i32 12, i32* %4, align 4
  store i32 1, i32* %3, align 4
  br label %6

6:                                                ; preds = %64, %0
  %7 = load i32, i32* %3, align 4
  %8 = icmp sle i32 %7, 12
  br i1 %8, label %9, label %67

9:                                                ; preds = %6
  %10 = load i32, i32* %3, align 4
  %11 = icmp eq i32 %10, 3
  br i1 %11, label %12, label %15

12:                                               ; preds = %9
  %13 = load i32, i32* %4, align 4
  %14 = add nsw i32 %13, 28
  store i32 %14, i32* %4, align 4
  br label %53

15:                                               ; preds = %9
  %16 = load i32, i32* %3, align 4
  %17 = icmp eq i32 %16, 5
  br i1 %17, label %27, label %18

18:                                               ; preds = %15
  %19 = load i32, i32* %3, align 4
  %20 = icmp eq i32 %19, 7
  br i1 %20, label %27, label %21

21:                                               ; preds = %18
  %22 = load i32, i32* %3, align 4
  %23 = icmp eq i32 %22, 10
  br i1 %23, label %27, label %24

24:                                               ; preds = %21
  %25 = load i32, i32* %3, align 4
  %26 = icmp eq i32 %25, 12
  br i1 %26, label %27, label %30

27:                                               ; preds = %24, %21, %18, %15
  %28 = load i32, i32* %4, align 4
  %29 = add nsw i32 %28, 30
  store i32 %29, i32* %4, align 4
  br label %52

30:                                               ; preds = %24
  %31 = load i32, i32* %3, align 4
  %32 = icmp eq i32 %31, 2
  br i1 %32, label %48, label %33

33:                                               ; preds = %30
  %34 = load i32, i32* %3, align 4
  %35 = icmp eq i32 %34, 4
  br i1 %35, label %48, label %36

36:                                               ; preds = %33
  %37 = load i32, i32* %3, align 4
  %38 = icmp eq i32 %37, 6
  br i1 %38, label %48, label %39

39:                                               ; preds = %36
  %40 = load i32, i32* %3, align 4
  %41 = icmp eq i32 %40, 8
  br i1 %41, label %48, label %42

42:                                               ; preds = %39
  %43 = load i32, i32* %3, align 4
  %44 = icmp eq i32 %43, 9
  br i1 %44, label %48, label %45

45:                                               ; preds = %42
  %46 = load i32, i32* %3, align 4
  %47 = icmp eq i32 %46, 11
  br i1 %47, label %48, label %51

48:                                               ; preds = %45, %42, %39, %36, %33, %30
  %49 = load i32, i32* %4, align 4
  %50 = add nsw i32 %49, 31
  store i32 %50, i32* %4, align 4
  br label %51

51:                                               ; preds = %48, %45
  br label %52

52:                                               ; preds = %51, %27
  br label %53

53:                                               ; preds = %52, %12
  %54 = load i32, i32* %4, align 4
  %55 = srem i32 %54, 7
  %56 = load i32, i32* %2, align 4
  %57 = add nsw i32 %55, %56
  %58 = srem i32 %57, 7
  %59 = icmp eq i32 %58, 5
  br i1 %59, label %60, label %63

60:                                               ; preds = %53
  %61 = load i32, i32* %3, align 4
  %62 = call i32 (i8*, ...) @printf(i8* getelementptr inbounds ([4 x i8], [4 x i8]* @.str.1, i64 0, i64 0), i32 %61)
  br label %63

63:                                               ; preds = %60, %53
  br label %64

64:                                               ; preds = %63
  %65 = load i32, i32* %3, align 4
  %66 = add nsw i32 %65, 1
  store i32 %66, i32* %3, align 4
  br label %6

67:                                               ; preds = %6
  ret i32 0
}

declare dso_local i32 @__isoc99_scanf(i8*, ...) #1

declare dso_local i32 @printf(i8*, ...) #1


!llvm.module.flags = !{!0}
!llvm.ident = !{!1}

!0 = !{i32 1, !"wchar_size", i32 4}
!1 = !{!"clang version 10.0.0-4ubuntu1 "}
